target datalayout = "e-m:e-p270:32:32-p271:32:32-p272:64:64-i64:64-i128:128-f80:128-n8:16:32:64-S128"
target triple = "x86_64-pc-linux-gnu"

%"struct.dtm_t::req" = type { i32, i32, i32 }
%class.dtm_t = type { %class.htif_t, %class.context_t, ptr, i64, %union.sem_t, %union.sem_t, %union.sem_t, %union.sem_t, %"struct.dtm_t::req", %"struct.dtm_t::resp", i8, i8, i8, i32, i32, i64, i64, i32, i32 }
%class.htif_t = type { %class.chunked_memif_t, i32, %class.memif_t, i64, i8, %"class.std::vector", %"class.std::vector", %"class.std::__cxx11::basic_string", i32, i64, i64, i64, i64, i32, i8, %class.device_list_t, %class.syscall_t, %class.bcd_t, %"class.std::vector.3", %"class.std::vector", %"class.std::vector", %"class.std::map" }
%class.chunked_memif_t = type { ptr }
%class.memif_t = type { ptr, ptr }
%"class.std::__cxx11::basic_string" = type { %"struct.std::__cxx11::basic_string<char>::_Alloc_hider", i64, %union.anon }
%"struct.std::__cxx11::basic_string<char>::_Alloc_hider" = type { ptr }
%union.anon = type { i64, [8 x i8] }
%class.device_list_t = type { %"class.std::vector.3", %class.null_device_t, i64 }
%class.null_device_t = type { %class.device_t }
%class.device_t = type { ptr, %"class.std::vector.8", %"class.std::vector" }
%"class.std::vector.8" = type { %"struct.std::_Vector_base.9" }
%"struct.std::_Vector_base.9" = type { %"struct.std::_Vector_base<std::function<void (command_t)>, std::allocator<std::function<void (command_t)>>>::_Vector_impl" }
%"struct.std::_Vector_base<std::function<void (command_t)>, std::allocator<std::function<void (command_t)>>>::_Vector_impl" = type { %"struct.std::_Vector_base<std::function<void (command_t)>, std::allocator<std::function<void (command_t)>>>::_Vector_impl_data" }
%"struct.std::_Vector_base<std::function<void (command_t)>, std::allocator<std::function<void (command_t)>>>::_Vector_impl_data" = type { ptr, ptr, ptr }
%class.syscall_t = type { %class.device_t, ptr, ptr, %"class.std::vector.13", %class.fds_t, %"class.std::vector.23", %"class.std::__cxx11::basic_string" }
%"class.std::vector.13" = type { %"struct.std::_Vector_base.14" }
%"struct.std::_Vector_base.14" = type { %"struct.std::_Vector_base<unsigned long (syscall_t::*)(unsigned long, unsigned long, unsigned long, unsigned long, unsigned long, unsigned long, unsigned long), std::allocator<unsigned long (syscall_t::*)(unsigned long, unsigned long, unsigned long, unsigned long, unsigned long, unsigned long, unsigned long)>>::_Vector_impl" }
%"struct.std::_Vector_base<unsigned long (syscall_t::*)(unsigned long, unsigned long, unsigned long, unsigned long, unsigned long, unsigned long, unsigned long), std::allocator<unsigned long (syscall_t::*)(unsigned long, unsigned long, unsigned long, unsigned long, unsigned long, unsigned long, unsigned long)>>::_Vector_impl" = type { %"struct.std::_Vector_base<unsigned long (syscall_t::*)(unsigned long, unsigned long, unsigned long, unsigned long, unsigned long, unsigned long, unsigned long), std::allocator<unsigned long (syscall_t::*)(unsigned long, unsigned long, unsigned long, unsigned long, unsigned long, unsigned long, unsigned long)>>::_Vector_impl_data" }
%"struct.std::_Vector_base<unsigned long (syscall_t::*)(unsigned long, unsigned long, unsigned long, unsigned long, unsigned long, unsigned long, unsigned long), std::allocator<unsigned long (syscall_t::*)(unsigned long, unsigned long, unsigned long, unsigned long, unsigned long, unsigned long, unsigned long)>>::_Vector_impl_data" = type { ptr, ptr, ptr }
%class.fds_t = type { %"class.std::vector.18" }
%"class.std::vector.18" = type { %"struct.std::_Vector_base.19" }
%"struct.std::_Vector_base.19" = type { %"struct.std::_Vector_base<int, std::allocator<int>>::_Vector_impl" }
%"struct.std::_Vector_base<int, std::allocator<int>>::_Vector_impl" = type { %"struct.std::_Vector_base<int, std::allocator<int>>::_Vector_impl_data" }
%"struct.std::_Vector_base<int, std::allocator<int>>::_Vector_impl_data" = type { ptr, ptr, ptr }
%"class.std::vector.23" = type { %"struct.std::_Vector_base.24" }
%"struct.std::_Vector_base.24" = type { %"struct.std::_Vector_base<unsigned long, std::allocator<unsigned long>>::_Vector_impl" }
%"struct.std::_Vector_base<unsigned long, std::allocator<unsigned long>>::_Vector_impl" = type { %"struct.std::_Vector_base<unsigned long, std::allocator<unsigned long>>::_Vector_impl_data" }
%"struct.std::_Vector_base<unsigned long, std::allocator<unsigned long>>::_Vector_impl_data" = type { ptr, ptr, ptr }
%class.bcd_t = type { %class.device_t, %"class.std::queue" }
%"class.std::queue" = type { %"class.std::deque" }
%"class.std::deque" = type { %"class.std::_Deque_base" }
%"class.std::_Deque_base" = type { %"struct.std::_Deque_base<command_t, std::allocator<command_t>>::_Deque_impl" }
%"struct.std::_Deque_base<command_t, std::allocator<command_t>>::_Deque_impl" = type { %"struct.std::_Deque_base<command_t, std::allocator<command_t>>::_Deque_impl_data" }
%"struct.std::_Deque_base<command_t, std::allocator<command_t>>::_Deque_impl_data" = type { ptr, i64, %"struct.std::_Deque_iterator", %"struct.std::_Deque_iterator" }
%"struct.std::_Deque_iterator" = type { ptr, ptr, ptr, ptr }
%"class.std::vector.3" = type { %"struct.std::_Vector_base.4" }
%"struct.std::_Vector_base.4" = type { %"struct.std::_Vector_base<device_t *, std::allocator<device_t *>>::_Vector_impl" }
%"struct.std::_Vector_base<device_t *, std::allocator<device_t *>>::_Vector_impl" = type { %"struct.std::_Vector_base<device_t *, std::allocator<device_t *>>::_Vector_impl_data" }
%"struct.std::_Vector_base<device_t *, std::allocator<device_t *>>::_Vector_impl_data" = type { ptr, ptr, ptr }
%"class.std::vector" = type { %"struct.std::_Vector_base" }
%"struct.std::_Vector_base" = type { %"struct.std::_Vector_base<std::__cxx11::basic_string<char>, std::allocator<std::__cxx11::basic_string<char>>>::_Vector_impl" }
%"struct.std::_Vector_base<std::__cxx11::basic_string<char>, std::allocator<std::__cxx11::basic_string<char>>>::_Vector_impl" = type { %"struct.std::_Vector_base<std::__cxx11::basic_string<char>, std::allocator<std::__cxx11::basic_string<char>>>::_Vector_impl_data" }
%"struct.std::_Vector_base<std::__cxx11::basic_string<char>, std::allocator<std::__cxx11::basic_string<char>>>::_Vector_impl_data" = type { ptr, ptr, ptr }
%"class.std::map" = type { %"class.std::_Rb_tree" }
%"class.std::_Rb_tree" = type { %"struct.std::_Rb_tree<unsigned long, std::pair<const unsigned long, std::__cxx11::basic_string<char>>, std::_Select1st<std::pair<const unsigned long, std::__cxx11::basic_string<char>>>, std::less<unsigned long>>::_Rb_tree_impl" }
%"struct.std::_Rb_tree<unsigned long, std::pair<const unsigned long, std::__cxx11::basic_string<char>>, std::_Select1st<std::pair<const unsigned long, std::__cxx11::basic_string<char>>>, std::less<unsigned long>>::_Rb_tree_impl" = type { %"struct.std::_Rb_tree_key_compare", %"struct.std::_Rb_tree_header" }
%"struct.std::_Rb_tree_key_compare" = type { %"struct.std::less" }
%"struct.std::less" = type { i8 }
%"struct.std::_Rb_tree_header" = type { %"struct.std::_Rb_tree_node_base", i64 }
%"struct.std::_Rb_tree_node_base" = type { i32, ptr, ptr, ptr }
%class.context_t = type { ptr, ptr, ptr, %"class.std::unique_ptr" }
%"class.std::unique_ptr" = type { %"struct.std::__uniq_ptr_data" }
%"struct.std::__uniq_ptr_data" = type { %"class.std::__uniq_ptr_impl" }
%"class.std::__uniq_ptr_impl" = type { %"class.std::tuple" }
%"class.std::tuple" = type { %"struct.std::_Tuple_impl" }
%"struct.std::_Tuple_impl" = type { %"struct.std::_Head_base.35" }
%"struct.std::_Head_base.35" = type { ptr }
%union.sem_t = type { i64, [24 x i8] }
%"struct.dtm_t::resp" = type { i32, i32 }

; Function Attrs: mustprogress uwtable
define noundef i32 @_ZN5dtm_t10do_commandENS_3reqE(ptr noundef nonnull align 8 dereferenceable(928) %0, i64 %1, i32 %2) #0 align 2 {
  %4 = alloca %"struct.dtm_t::req", align 4
  %5 = alloca { i64, i32 }, align 4
  %6 = alloca ptr, align 8
  %7 = getelementptr inbounds { i64, i32 }, ptr %5, i32 0, i32 0
  store i64 %1, ptr %7, align 4
  %8 = getelementptr inbounds { i64, i32 }, ptr %5, i32 0, i32 1
  store i32 %2, ptr %8, align 4
  call void @llvm.memcpy.p0.p0.i64(ptr align 4 %4, ptr align 4 %5, i64 12, i1 false)
  store ptr %0, ptr %6, align 8
  %9 = load ptr, ptr %6, align 8
  %10 = getelementptr inbounds %class.dtm_t, ptr %9, i32 0, i32 8
  call void @llvm.memcpy.p0.p0.i64(ptr align 8 %10, ptr align 4 %4, i64 12, i1 false)
  %11 = getelementptr inbounds %class.dtm_t, ptr %9, i32 0, i32 2
  %12 = load ptr, ptr %11, align 8
  call void @_ZN9context_t9switch_toEv(ptr noundef nonnull align 8 dereferenceable(32) %12)
  %13 = getelementptr inbounds %class.dtm_t, ptr %9, i32 0, i32 9
  %14 = getelementptr inbounds %"struct.dtm_t::resp", ptr %13, i32 0, i32 1
  %15 = load i32, ptr %14, align 4
  ret i32 %15
}

; Function Attrs: mustprogress uwtable
define noundef i32 @_ZN5dtm_t5writeEjj(ptr noundef nonnull align 8 dereferenceable(928) %0, i32 noundef %1, i32 noundef %2) #0 align 2 {
  %4 = alloca ptr, align 8
  %5 = alloca i32, align 4
  %6 = alloca i32, align 4
  %7 = alloca %"struct.dtm_t::req", align 4
  %8 = alloca { i64, i32 }, align 4
  store ptr %0, ptr %4, align 8
  store i32 %1, ptr %5, align 4
  store i32 %2, ptr %6, align 4
  %9 = load ptr, ptr %4, align 8
  %10 = getelementptr inbounds %"struct.dtm_t::req", ptr %7, i32 0, i32 0
  %11 = load i32, ptr %5, align 4
  store i32 %11, ptr %10, align 4
  %12 = getelementptr inbounds %"struct.dtm_t::req", ptr %7, i32 0, i32 1
  store i32 2, ptr %12, align 4
  %13 = getelementptr inbounds %"struct.dtm_t::req", ptr %7, i32 0, i32 2
  %14 = load i32, ptr %6, align 4
  store i32 %14, ptr %13, align 4
  call void @llvm.memcpy.p0.p0.i64(ptr align 4 %8, ptr align 4 %7, i64 12, i1 false)
  %15 = getelementptr inbounds { i64, i32 }, ptr %8, i32 0, i32 0
  %16 = load i64, ptr %15, align 4
  %17 = getelementptr inbounds { i64, i32 }, ptr %8, i32 0, i32 1
  %18 = load i32, ptr %17, align 4
  %19 = call noundef i32 @_ZN5dtm_t10do_commandENS_3reqE(ptr noundef nonnull align 8 dereferenceable(928) %9, i64 %16, i32 %18)
  ret i32 %19
}

; Function Attrs: mustprogress uwtable
define noundef i32 @_ZN5dtm_t4readEj(ptr noundef nonnull align 8 dereferenceable(928) %0, i32 noundef %1) #0 align 2 {
  %3 = alloca ptr, align 8
  %4 = alloca i32, align 4
  %5 = alloca %"struct.dtm_t::req", align 4
  %6 = alloca { i64, i32 }, align 4
  store ptr %0, ptr %3, align 8
  store i32 %1, ptr %4, align 4
  %7 = load ptr, ptr %3, align 8
  %8 = getelementptr inbounds %"struct.dtm_t::req", ptr %5, i32 0, i32 0
  %9 = load i32, ptr %4, align 4
  store i32 %9, ptr %8, align 4
  %10 = getelementptr inbounds %"struct.dtm_t::req", ptr %5, i32 0, i32 1
  store i32 1, ptr %10, align 4
  %11 = getelementptr inbounds %"struct.dtm_t::req", ptr %5, i32 0, i32 2
  store i32 0, ptr %11, align 4
  call void @llvm.memcpy.p0.p0.i64(ptr align 4 %6, ptr align 4 %5, i64 12, i1 false)
  %12 = getelementptr inbounds { i64, i32 }, ptr %6, i32 0, i32 0
  %13 = load i64, ptr %12, align 4
  %14 = getelementptr inbounds { i64, i32 }, ptr %6, i32 0, i32 1
  %15 = load i32, ptr %14, align 4
  %16 = call noundef i32 @_ZN5dtm_t10do_commandENS_3reqE(ptr noundef nonnull align 8 dereferenceable(928) %7, i64 %13, i32 %15)
  ret i32 %16
}

; Function Attrs: mustprogress uwtable
define noundef i64 @_ZN5dtm_t9write_csrEjm(ptr noundef nonnull align 8 dereferenceable(928) %0, i32 noundef %1, i64 noundef %2) #0 align 2 {
  %4 = alloca ptr, align 8
  %5 = alloca i32, align 4
  %6 = alloca i64, align 8
  store ptr %0, ptr %4, align 8
  store i32 %1, ptr %5, align 4
  store i64 %2, ptr %6, align 8
  %7 = load ptr, ptr %4, align 8
  %8 = load i32, ptr %5, align 4
  %9 = load i64, ptr %6, align 8
  %10 = call noundef i64 @_ZN5dtm_t10modify_csrEjmj(ptr noundef nonnull align 8 dereferenceable(928) %7, i32 noundef %8, i64 noundef %9, i32 noundef 1)
  ret i64 %10
}

; Function Attrs: mustprogress nounwind uwtable
define linkonce_odr noundef i64 @_ZN6htif_t15get_entry_pointEv(ptr noundef nonnull align 8 dereferenceable(696) %0) #4 comdat align 2 {
  %2 = alloca ptr, align 8
  store ptr %0, ptr %2, align 8
  %3 = load ptr, ptr %2, align 8
  %4 = getelementptr inbounds %class.htif_t, ptr %3, i32 0, i32 3
  %5 = load i64, ptr %4, align 8
  ret i64 %5
}

; Function Attrs: mustprogress uwtable
define void @_ZN5dtm_t11select_hartEi(ptr noundef nonnull align 8 dereferenceable(928) %0, i32 noundef %1) #0 align 2 {
  %3 = alloca ptr, align 8
  %4 = alloca i32, align 4
  %5 = alloca i32, align 4
  store ptr %0, ptr %3, align 8
  store i32 %1, ptr %4, align 4
  %6 = load ptr, ptr %3, align 8
  %7 = call noundef i32 @_ZN5dtm_t4readEj(ptr noundef nonnull align 8 dereferenceable(928) %6, i32 noundef 16)
  store i32 %7, ptr %5, align 4
  %8 = load i32, ptr %5, align 4
  %9 = and i32 %8, -67108865
  %10 = load i32, ptr %4, align 4
  %11 = mul nsw i32 %10, 67108864
  %12 = and i32 %11, 67108864
  %13 = or i32 %9, %12
  %14 = call noundef i32 @_ZN5dtm_t5writeEjj(ptr noundef nonnull align 8 dereferenceable(928) %6, i32 noundef 16, i32 noundef %13)
  %15 = load i32, ptr %4, align 4
  %16 = getelementptr inbounds %class.dtm_t, ptr %6, i32 0, i32 18
  store i32 %15, ptr %16, align 4
  ret void
}

; Function Attrs: mustprogress uwtable
define void @_ZN5dtm_t5resetEv(ptr noundef nonnull align 8 dereferenceable(928) %0) unnamed_addr #0 align 2 {
  %2 = alloca ptr, align 8
  %3 = alloca i32, align 4
  store ptr %0, ptr %2, align 8
  %4 = load ptr, ptr %2, align 8
  store i32 0, ptr %3, align 4
  br label %5

5:                                                ; preds = %14, %1
  %6 = load i32, ptr %3, align 4
  %7 = getelementptr inbounds %class.dtm_t, ptr %4, i32 0, i32 17
  %8 = load i32, ptr %7, align 8
  %9 = icmp slt i32 %6, %8
  br i1 %9, label %10, label %17

10:                                               ; preds = %5
  %11 = load i32, ptr %3, align 4
  call void @_ZN5dtm_t11select_hartEi(ptr noundef nonnull align 8 dereferenceable(928) %4, i32 noundef %11)
  call void @_ZN5dtm_t7fence_iEv(ptr noundef nonnull align 8 dereferenceable(928) %4)
  %12 = call noundef i64 @_ZN6htif_t15get_entry_pointEv(ptr noundef nonnull align 8 dereferenceable(696) %4)
  %13 = call noundef i64 @_ZN5dtm_t9write_csrEjm(ptr noundef nonnull align 8 dereferenceable(928) %4, i32 noundef 1969, i64 noundef %12)
  br label %14

14:                                               ; preds = %10
  %15 = load i32, ptr %3, align 4
  %16 = add nsw i32 %15, 1
  store i32 %16, ptr %3, align 4
  br label %5, !llvm.loop !17

17:                                               ; preds = %5
  call void @_ZN5dtm_t11select_hartEi(ptr noundef nonnull align 8 dereferenceable(928) %4, i32 noundef 0)
  %18 = call noundef i32 @_ZN5dtm_t4readEj(ptr noundef nonnull align 8 dereferenceable(928) %4, i32 noundef 17)
  ret void
}