; Function Attrs: mustprogress uwtable
define void @_ZN5dtm_t5resetEv(ptr nocapture noundef nonnull align 8 dereferenceable(928) %0) unnamed_addr #0 align 2 {
  %2 = getelementptr inbounds i8, ptr %0, i64 920
  %3 = load i32, ptr %2, align 8
  %4 = icmp sgt i32 %3, 0
  br i1 %4, label %.lr.ph, label %._crit_edge

.lr.ph:                                           ; preds = %1
  %5 = getelementptr inbounds i8, ptr %0, i64 872
  %.sroa.22.0..sroa_idx.i.i.i = getelementptr inbounds i8, ptr %0, i64 880
  %6 = getelementptr inbounds i8, ptr %0, i64 728
  %7 = getelementptr inbounds i8, ptr %0, i64 888
  %8 = getelementptr inbounds i8, ptr %0, i64 924
  %9 = getelementptr inbounds i8, ptr %0, i64 32
  br label %10

10:                                               ; preds = %.lr.ph, %10
  %.04 = phi i32 [ 0, %.lr.ph ], [ %20, %10 ]
  store i64 4294967312, ptr %5, align 8
  store i32 0, ptr %.sroa.22.0..sroa_idx.i.i.i, align 8
  %11 = load ptr, ptr %6, align 8
  tail call void @_ZN9context_t9switch_toEv(ptr noundef nonnull align 8 dereferenceable(32) %11)
  %12 = load i32, ptr %7, align 8
  %13 = and i32 %12, -67108865
  %14 = shl nsw i32 %.04, 26
  %15 = and i32 %14, 67108864
  %16 = or disjoint i32 %13, %15
  store i64 8589934608, ptr %5, align 8
  store i32 %16, ptr %.sroa.22.0..sroa_idx.i.i.i, align 8
  %17 = load ptr, ptr %6, align 8
  tail call void @_ZN9context_t9switch_toEv(ptr noundef nonnull align 8 dereferenceable(32) %17)
  store i32 %.04, ptr %8, align 4
  tail call void @_ZN5dtm_t7fence_iEv(ptr noundef nonnull align 8 dereferenceable(928) %0)
  %18 = load i64, ptr %9, align 8
  %19 = tail call noundef i64 @_ZN5dtm_t10modify_csrEjmj(ptr noundef nonnull align 8 dereferenceable(928) %0, i32 noundef 1969, i64 noundef %18, i32 noundef 1), !range !16
  %20 = add nuw nsw i32 %.04, 1
  %21 = load i32, ptr %2, align 8
  %22 = icmp slt i32 %20, %21
  br i1 %22, label %10, label %._crit_edge, !llvm.loop !21

._crit_edge:                                      ; preds = %10, %1
  %23 = getelementptr inbounds i8, ptr %0, i64 872
  store i64 4294967312, ptr %23, align 8
  %.sroa.22.0..sroa_idx.i.i.i3 = getelementptr inbounds i8, ptr %0, i64 880
  store i32 0, ptr %.sroa.22.0..sroa_idx.i.i.i3, align 8
  %24 = getelementptr inbounds i8, ptr %0, i64 728
  %25 = load ptr, ptr %24, align 8
  tail call void @_ZN9context_t9switch_toEv(ptr noundef nonnull align 8 dereferenceable(32) %25)
  %26 = getelementptr inbounds i8, ptr %0, i64 888
  %27 = load i32, ptr %26, align 8
  %28 = and i32 %27, -67108865
  store i64 8589934608, ptr %23, align 8
  store i32 %28, ptr %.sroa.22.0..sroa_idx.i.i.i3, align 8
  %29 = load ptr, ptr %24, align 8
  tail call void @_ZN9context_t9switch_toEv(ptr noundef nonnull align 8 dereferenceable(32) %29)
  %30 = getelementptr inbounds i8, ptr %0, i64 924
  store i32 0, ptr %30, align 4
  store i64 4294967313, ptr %23, align 8
  store i32 0, ptr %.sroa.22.0..sroa_idx.i.i.i3, align 8
  %31 = load ptr, ptr %24, align 8
  tail call void @_ZN9context_t9switch_toEv(ptr noundef nonnull align 8 dereferenceable(32) %31)
  ret void
}